; Function Attrs: mustprogress nounwind uwtable
define hidden void @_ZN15ciObjectFactory10initializeEv() local_unnamed_addr #0 align 2 {
  %1 = alloca %class.HandleMark, align 8
  %2 = alloca %class.ciEnv, align 8
  %3 = tail call align 8 ptr @llvm.threadlocal.address.p0(ptr align 8 @_ZN6Thread12_thr_currentE)
  %4 = load ptr, ptr %3, align 8
  call void @_ZN10HandleMark10initializeEP6Thread(ptr noundef nonnull align 8 dereferenceable(56) %1, ptr noundef %4) #9
  %5 = call noundef ptr @_Z12AllocateHeapm8MEMFLAGSN17AllocFailStrategy13AllocFailEnumE(i64 noundef 48, i8 noundef zeroext 7, i32 noundef 0) #9
  call void @_ZN5ArenaC1E8MEMFLAGSNS_3TagEm(ptr noundef nonnull align 8 dereferenceable(48) %5, i8 noundef zeroext 7, i8 noundef zeroext 0, i64 noundef 984) #9
  call void @_ZN5ciEnvC1EP5Arena(ptr noundef nonnull align 8 dereferenceable(1265) %2, ptr noundef nonnull %5) #9
  %6 = load ptr, ptr %3, align 8
  %7 = getelementptr inbounds i8, ptr %6, i64 1808
  %8 = load ptr, ptr %7, align 8
  %9 = getelementptr inbounds i8, ptr %8, i64 56
  %10 = load ptr, ptr %9, align 8
  call void @_ZN15ciObjectFactory19init_shared_objectsEv(ptr noundef nonnull align 8 dereferenceable(652) %10)
  store volatile i8 1, ptr @_ZN15ciObjectFactory12_initializedE, align 1
  call void @_ZN5ciEnvD1Ev(ptr noundef nonnull align 8 dereferenceable(1265) %2) #9
  call void @_ZN10HandleMarkD1Ev(ptr noundef nonnull align 8 dereferenceable(56) %1) #9
  ret void
}